Microchip MPLAB XC8 Compiler V2.36

Linker command line:

-W-3 --edf=C:\Program Files\Microchip\xc8\v2.36\pic\dat\en_msgs.txt -cn \
  -h+dist/default/production\5CV25_12_5_Mensjae_Desplazamiento.X.production.sym \
  --cmf=dist/default/production\5CV25_12_5_Mensjae_Desplazamiento.X.production.cmf \
  -z -Q16F84A -oC:\Users\EDGARA~1\AppData\Local\Temp\xcAsdnc.4 \
  --defsym=__MPLAB_BUILD=1 \
  -Mdist/default/production/5CV25_12_5_Mensjae_Desplazamiento.X.production.map \
  --md=C:\Users\EDGARA~1\AppData\Local\Temp\xcAsdnc.dat -E1 \
  -ver=XC8 Compiler --acfsm=1493 -ACODE=00h-03FFh -ASTRCODE=00h-03FFh \
  -ASTRING=00h-0FFhx4 -ACONST=00h-0FFhx4 -AENTRY=00h-0FFhx4 \
  -ABANK0=0Ch-04Dh -ARAM=0Ch-04Dh -AABS1=0Ch-04Fh -ACOMMON=04Eh-04Fh \
  -ASFR0=00h-0Bh -ASFR1=080h-0CDh -ACONFIG=02007h-02007h -DCONFIG=2 \
  -AIDLOC=02000h-02003h -DIDLOC=2 -AEEDATA=00h-03Fh/02100h \
  -peeprom_data=EEDATA -DEEDATA=2 -DCODE=2 -DSTRCODE=2 -DSTRING=2 -DCONST=2 \
  -DENTRY=2 -preset_vec=00h,intentry,init,end_init -ppowerup=CODE \
  -pcinit=CODE -pfunctab=ENTRY -k \
  C:\Users\EDGARA~1\AppData\Local\Temp\xcAsdnc.o \
  dist/default/production\5CV25_12_5_Mensjae_Desplazamiento.X.production.o 

Object code version is 3.11

Machine type is 16F84A



                Name                               Link     Load   Length Selector   Space Scale
C:\Users\EDGARA~1\AppData\Local\Temp\xcAsdnc.o
                end_init                              0        0        1        0       0
                config                             2007     2007        1        0       4
                idloc                              2000     2000        4        0       5
dist/default/production\5CV25_12_5_Mensjae_Desplazamiento.X.production.o
                cinit                               3FE      3FE        2      7FC       0
                config                             2007     2007        1        0       4
                idloc                              2000     2000        4        0       5
                text4                               1AE      1AE       A4      35C       0
                text3                               118      118       96      230       0
                text2                               252      252       A8      4A4       0
                text1                                D1       D1       47      1A2       0
                maintext                            2FA      2FA      104      5F4       0
                cstackBANK0                           C        C        C        C       1
                strings                               1        1       33        2       0

TOTAL           Name                               Link     Load   Length     Space
        CLASS   CODE           
                end_init                              0        0        1         0
                cinit                               3FE      3FE        2         0
                text4                               1AE      1AE       A4         0
                text3                               118      118       96         0
                text2                               252      252       A8         0
                text1                                D1       D1       47         0
                maintext                            2FA      2FA      104         0

        CLASS   STRCODE        

        CLASS   STRING         
                strings                               1        1       33         0

        CLASS   CONST          

        CLASS   ENTRY          

        CLASS   BANK0          
                cstackBANK0                           C        C        C         1

        CLASS   RAM            

        CLASS   ABS1           
                abs_s1                               4E       4E        2         1

        CLASS   COMMON         

        CLASS   SFR0           

        CLASS   SFR1           

        CLASS   CONFIG         
                config                             2007     2007        1         4

        CLASS   IDLOC          
                idloc                              2000     2000        4         5

        CLASS   EEDATA         

        CLASS   BANK1          

        CLASS   STACK          



SEGMENTS        Name                           Load    Length   Top    Selector   Space  Class     Delta

                reset_vec                      000000  000001  000001         0       0  CODE        2
                strings                        000001  000033  000034         2       0  STRING      2
                cstackBANK0                    00000C  00000C  000018         C       1  BANK0       1
                text1                          0000D1  000047  000118       1A2       0  CODE        2
                text3                          000118  000096  0001AE       230       0  CODE        2
                text4                          0001AE  0000A4  000252       35C       0  CODE        2
                text2                          000252  0000A8  0002FA       4A4       0  CODE        2
                maintext                       0002FA  000104  0003FE       5F4       0  CODE        2
                cinit                          0003FE  000002  000400       7FC       0  CODE        2


UNUSED ADDRESS RANGES

        Name                Unused          Largest block    Delta
        BANK0            0018-004D             36           1
        CODE             0034-00D0             9D           2
        CONST            0034-00D0             9D           2
        EEDATA           2100-213F             40           2
        ENTRY            0034-00D0             9D           2
        RAM              0018-004D             36           1
        SFR0             0000-000B              C           1
        SFR1             0080-00CD             4E           1
        STRCODE          0034-00D0             9D           2
        STRING           0034-00D0             9D           2

                                  Symbol Table

Lcd_Chr_CP@data          cstackBANK0 000E
Lcd_Cmd@data             cstackBANK0 000E
Lcd_Init@data            cstackBANK0 0011
Lcd_Out@buffer           cstackBANK0 0010
Lcd_Out@data             cstackBANK0 0014
Lcd_Out@x                cstackBANK0 000F
Lcd_Out@y                cstackBANK0 0013
_Lcd_Chr_CP              text2       0252
_Lcd_Cmd                 text4       01AE
_Lcd_Init                text3       0118
_Lcd_Out                 text1       00D1
_PORTBbits               (abs)       0006
_TRISB                   (abs)       0086
_TRISBbits               (abs)       0086
__Habs1                  abs1        0000
__Hbank0                 bank0       0000
__Hbank1                 bank1       0000
__Hcinit                 cinit       0400
__Hclrtext               clrtext     0000
__Hcode                  code        0000
__Hcommon                common      0000
__Hconfig                config      2008
__HcstackBANK0           cstackBANK0 0000
__Heeprom_data           eeprom_data 0000
__Hend_init              end_init    0001
__Hfunctab               functab     0000
__Hidloc                 idloc       2004
__Hinit                  init        0000
__Hintentry              intentry    0000
__Hmaintext              maintext    0000
__Hpowerup               powerup     0000
__Hram                   ram         0000
__Hreset_vec             reset_vec   0000
__Hsfr0                  sfr0        0000
__Hsfr1                  sfr1        0000
__Hspace_0               (abs)       0400
__Hspace_1               (abs)       0018
__Hspace_2               (abs)       0000
__Hspace_3               (abs)       0000
__Hspace_4               (abs)       400F
__Hstack                 stack       0000
__Hstrings               strings     0000
__Htext                  text        0000
__Labs1                  abs1        0000
__Lbank0                 bank0       0000
__Lbank1                 bank1       0000
__Lcinit                 cinit       03FE
__Lclrtext               clrtext     0000
__Lcode                  code        0000
__Lcommon                common      0000
__Lconfig                config      0000
__LcstackBANK0           cstackBANK0 0000
__Leeprom_data           eeprom_data 0000
__Lend_init              end_init    0000
__Lfunctab               functab     0000
__Lidloc                 idloc       0000
__Linit                  init        0000
__Lintentry              intentry    0000
__Lmaintext              maintext    0000
__Lpowerup               powerup     0000
__Lram                   ram         0000
__Lreset_vec             reset_vec   0000
__Lsfr0                  sfr0        0000
__Lsfr1                  sfr1        0000
__Lspace_0               (abs)       0000
__Lspace_1               (abs)       0000
__Lspace_2               (abs)       0000
__Lspace_3               (abs)       0000
__Lspace_4               (abs)       0000
__Lstack                 stack       0000
__Lstrings               strings     0000
__Ltext                  text        0000
__S0                     (abs)       0400
__S1                     (abs)       0018
__S3                     (abs)       0000
___int_sp                stack       0000
___latbits               (abs)       0000
___sp                    stack       0000
___stackhi               (abs)       0000
___stacklo               (abs)       0000
__end_of_Lcd_Chr_CP      text2       02FA
__end_of_Lcd_Cmd         text4       0252
__end_of_Lcd_Init        text3       01AE
__end_of_Lcd_Out         text1       0118
__end_of__initialization cinit       03FE
__end_of__stringtab      strings     0007
__end_of_main            maintext    03FE
__initialization         cinit       03FE
__pcstackBANK0           cstackBANK0 000C
__pmaintext              maintext    02FA
__pstrings               strings     0001
__ptext1                 text1       00D1
__ptext2                 text2       0252
__ptext3                 text3       0118
__ptext4                 text4       01AE
__stringbase             strings     0006
__stringtab              strings     0001
_main                    maintext    02FA
btemp                    (abs)       004E
end_of_initialization    cinit       03FE
intlevel0                functab     0000
intlevel1                functab     0000
intlevel2                functab     0000
intlevel3                functab     0000
intlevel4                functab     0000
intlevel5                functab     0000
reset_vec                reset_vec   0000
start                    init        0000
start_initialization     cinit       03FE
wtemp0                   (abs)       004E


MODULE INFORMATION

Module		Function		Class		Link	Load	Size
shared
		__stringtab    		STRING         	0001	0000	6
		__initialization		CODE           	03FE	0000	1

shared estimated size: 7

main.c
		_main          		CODE           	02FA	0000	260

main.c estimated size: 260

./flex-lcd.h
		_Lcd_Init      		CODE           	0118	0000	150
		_Lcd_Out       		CODE           	00D1	0000	71
		_Lcd_Chr_CP    		CODE           	0252	0000	168
		_Lcd_Cmd       		CODE           	01AE	0000	164

./flex-lcd.h estimated size: 553

